target datalayout = "e-m:e-p270:32:32-p271:32:32-p272:64:64-i64:64-i128:128-f80:128-n8:16:32:64-S128"
target triple = "x86_64-pc-linux-gnu"

%"class.llvm::SmallVectorBase" = type { ptr, i32, i32 }
%"class.llvm::LiveRegMatrix" = type { %"class.llvm::MachineFunctionPass", ptr, ptr, ptr, i32, %"class.llvm::RecyclingAllocator", %"class.llvm::LiveIntervalUnion::Array", %"class.std::unique_ptr", i32, i32, %"class.llvm::BitVector" }
%"class.llvm::MachineFunctionPass" = type { %"class.llvm::FunctionPass.base", %"class.llvm::MachineFunctionProperties", %"class.llvm::MachineFunctionProperties", %"class.llvm::MachineFunctionProperties" }
%"class.llvm::FunctionPass.base" = type { %"class.llvm::Pass.base" }
%"class.llvm::Pass.base" = type <{ ptr, ptr, ptr, i32 }>
%"class.llvm::MachineFunctionProperties" = type { %"class.std::bitset" }
%"class.std::bitset" = type { %"struct.std::_Base_bitset" }
%"struct.std::_Base_bitset" = type { i64 }
%"class.llvm::RecyclingAllocator" = type { %"class.llvm::Recycler", %"class.llvm::BumpPtrAllocatorImpl" }
%"class.llvm::Recycler" = type { ptr }
%"class.llvm::BumpPtrAllocatorImpl" = type { ptr, ptr, %"class.llvm::SmallVector", %"class.llvm::SmallVector.6", i64, i64 }
%"class.llvm::SmallVector" = type { %"class.llvm::SmallVectorImpl", %"struct.llvm::SmallVectorStorage" }
%"class.llvm::SmallVectorImpl" = type { %"class.llvm::SmallVectorTemplateBase" }
%"class.llvm::SmallVectorTemplateBase" = type { %"class.llvm::SmallVectorTemplateCommon" }
%"class.llvm::SmallVectorTemplateCommon" = type { %"class.llvm::SmallVectorBase" }
%"struct.llvm::SmallVectorStorage" = type { [32 x i8] }
%"class.llvm::SmallVector.6" = type { %"class.llvm::SmallVectorImpl.7" }
%"class.llvm::SmallVectorImpl.7" = type { %"class.llvm::SmallVectorTemplateBase.8" }
%"class.llvm::SmallVectorTemplateBase.8" = type { %"class.llvm::SmallVectorTemplateCommon.9" }
%"class.llvm::SmallVectorTemplateCommon.9" = type { %"class.llvm::SmallVectorBase" }
%"class.llvm::LiveIntervalUnion::Array" = type { i32, ptr }
%"class.std::unique_ptr" = type { %"struct.std::__uniq_ptr_data" }
%"struct.std::__uniq_ptr_data" = type { %"class.std::__uniq_ptr_impl" }
%"class.std::__uniq_ptr_impl" = type { %"class.std::tuple" }
%"class.std::tuple" = type { %"struct.std::_Tuple_impl" }
%"struct.std::_Tuple_impl" = type { %"struct.std::_Head_base.12" }
%"struct.std::_Head_base.12" = type { ptr }
%"class.llvm::BitVector" = type <{ %"class.llvm::SmallVector.13", i32, [4 x i8] }>
%"class.llvm::SmallVector.13" = type { %"class.llvm::SmallVectorImpl.14", %"struct.llvm::SmallVectorStorage.17" }
%"class.llvm::SmallVectorImpl.14" = type { %"class.llvm::SmallVectorTemplateBase.15" }
%"class.llvm::SmallVectorTemplateBase.15" = type { %"class.llvm::SmallVectorTemplateCommon.16" }
%"class.llvm::SmallVectorTemplateCommon.16" = type { %"class.llvm::SmallVectorBase" }
%"struct.llvm::SmallVectorStorage.17" = type { [48 x i8] }
%"class.llvm::LiveIntervalUnion::Query" = type <{ ptr, ptr, ptr, %"class.llvm::IntervalMap<llvm::SlotIndex, const llvm::LiveInterval *>::const_iterator", %"class.llvm::SmallVector.176", i8, i8, [2 x i8], i32, i32, [4 x i8] }>
%"class.llvm::IntervalMap<llvm::SlotIndex, const llvm::LiveInterval *>::const_iterator" = type { ptr, %"class.llvm::IntervalMapImpl::Path" }
%"class.llvm::IntervalMapImpl::Path" = type { %"class.llvm::SmallVector.171" }
%"class.llvm::SmallVector.171" = type { %"class.llvm::SmallVectorImpl.172", %"struct.llvm::SmallVectorStorage.175" }
%"class.llvm::SmallVectorImpl.172" = type { %"class.llvm::SmallVectorTemplateBase.173" }
%"class.llvm::SmallVectorTemplateBase.173" = type { %"class.llvm::SmallVectorTemplateCommon.174" }
%"class.llvm::SmallVectorTemplateCommon.174" = type { %"class.llvm::SmallVectorBase" }
%"struct.llvm::SmallVectorStorage.175" = type { [64 x i8] }
%"class.llvm::SmallVector.176" = type { %"class.llvm::SmallVectorImpl.177", %"struct.llvm::SmallVectorStorage.180" }
%"class.llvm::SmallVectorImpl.177" = type { %"class.llvm::SmallVectorTemplateBase.178" }
%"class.llvm::SmallVectorTemplateBase.178" = type { %"class.llvm::SmallVectorTemplateCommon.179" }
%"class.llvm::SmallVectorTemplateCommon.179" = type { %"class.llvm::SmallVectorBase" }
%"struct.llvm::SmallVectorStorage.180" = type { [32 x i8] }
%"class.llvm::MCRegister" = type { i32 }
%"class.llvm::LiveIntervalUnion" = type { i32, %"class.llvm::IntervalMap" }
%"class.llvm::IntervalMap" = type { %union.anon.181, i32, i32, ptr }
%union.anon.181 = type { %"class.llvm::IntervalMapImpl::LeafNode" }
%"class.llvm::IntervalMapImpl::LeafNode" = type { %"class.llvm::IntervalMapImpl::NodeBase" }
%"class.llvm::IntervalMapImpl::NodeBase" = type { [8 x %"struct.std::pair"], [8 x ptr] }
%"struct.std::pair" = type { %"class.llvm::SlotIndex", %"class.llvm::SlotIndex" }
%"class.llvm::SlotIndex" = type { %"class.llvm::PointerIntPair" }
%"class.llvm::PointerIntPair" = type { %"struct.llvm::detail::PunnedPointer" }
%"struct.llvm::detail::PunnedPointer" = type { [8 x i8] }

; Function Attrs: mustprogress nounwind uwtable
define linkonce_odr hidden noundef nonnull align 8 dereferenceable(8) ptr @_ZNSt10_Head_baseILm0EPN4llvm17LiveIntervalUnion5QueryELb0EE7_M_headERKS4_(ptr noundef nonnull align 8 dereferenceable(8) %0) #1 comdat align 2 {
  %2 = alloca ptr, align 8
  store ptr %0, ptr %2, align 8
  %3 = load ptr, ptr %2, align 8
  %4 = getelementptr inbounds nuw %"struct.std::_Head_base.12", ptr %3, i32 0, i32 0
  ret ptr %4
}

; Function Attrs: mustprogress nounwind uwtable
define linkonce_odr hidden noundef nonnull align 8 dereferenceable(8) ptr @_ZNSt11_Tuple_implILm0EJPN4llvm17LiveIntervalUnion5QueryESt14default_deleteIA_S2_EEE7_M_headERKS7_(ptr noundef nonnull align 8 dereferenceable(8) %0) #1 comdat align 2 {
  %2 = alloca ptr, align 8
  store ptr %0, ptr %2, align 8
  %3 = load ptr, ptr %2, align 8
  %4 = call noundef nonnull align 8 dereferenceable(8) ptr @_ZNSt10_Head_baseILm0EPN4llvm17LiveIntervalUnion5QueryELb0EE7_M_headERKS4_(ptr noundef nonnull align 8 dereferenceable(8) %3) #10
  ret ptr %4
}

; Function Attrs: mustprogress nounwind uwtable
define linkonce_odr noundef nonnull align 8 dereferenceable(8) ptr @_ZSt12__get_helperILm0EPN4llvm17LiveIntervalUnion5QueryEJSt14default_deleteIA_S2_EEERKT0_RKSt11_Tuple_implIXT_EJS7_DpT1_EE(ptr noundef nonnull align 8 dereferenceable(8) %0) #1 comdat {
  %2 = alloca ptr, align 8
  store ptr %0, ptr %2, align 8
  %3 = load ptr, ptr %2, align 8
  %4 = call noundef nonnull align 8 dereferenceable(8) ptr @_ZNSt11_Tuple_implILm0EJPN4llvm17LiveIntervalUnion5QueryESt14default_deleteIA_S2_EEE7_M_headERKS7_(ptr noundef nonnull align 8 dereferenceable(8) %3) #10
  ret ptr %4
}

; Function Attrs: mustprogress nounwind uwtable
define linkonce_odr hidden void @_ZN4llvm23SmallVectorTemplateBaseIPKNS_12LiveIntervalELb1EE13destroy_rangeEPS3_S5_(ptr noundef %0, ptr noundef %1) #1 comdat align 2 {
  %3 = alloca ptr, align 8
  %4 = alloca ptr, align 8
  store ptr %0, ptr %3, align 8
  store ptr %1, ptr %4, align 8
  ret void
}

; Function Attrs: mustprogress nounwind uwtable
define linkonce_odr hidden noundef ptr @_ZN4llvm25SmallVectorTemplateCommonIPKNS_12LiveIntervalEvE3endEv(ptr noundef nonnull align 8 dereferenceable(16) %0) #1 comdat align 2 {
  %2 = alloca ptr, align 8
  store ptr %0, ptr %2, align 8
  %3 = load ptr, ptr %2, align 8
  %4 = call noundef ptr @_ZN4llvm25SmallVectorTemplateCommonIPKNS_12LiveIntervalEvE5beginEv(ptr noundef nonnull align 8 dereferenceable(16) %3)
  %5 = call noundef i64 @_ZNK4llvm15SmallVectorBaseIjE4sizeEv(ptr noundef nonnull align 8 dereferenceable(16) %3)
  %6 = getelementptr inbounds ptr, ptr %4, i64 %5
  ret ptr %6
}

; Function Attrs: mustprogress nounwind uwtable
define linkonce_odr hidden noundef ptr @_ZN4llvm25SmallVectorTemplateCommonIPKNS_12LiveIntervalEvE5beginEv(ptr noundef nonnull align 8 dereferenceable(16) %0) #1 comdat align 2 {
  %2 = alloca ptr, align 8
  store ptr %0, ptr %2, align 8
  %3 = load ptr, ptr %2, align 8
  %4 = getelementptr inbounds nuw %"class.llvm::SmallVectorBase", ptr %3, i32 0, i32 0
  %5 = load ptr, ptr %4, align 8
  ret ptr %5
}

; Function Attrs: mustprogress nounwind uwtable
define linkonce_odr noundef nonnull align 8 dereferenceable(8) ptr @_ZSt3getILm0EJPN4llvm17LiveIntervalUnion5QueryESt14default_deleteIA_S2_EEERKNSt13tuple_elementIXT_ESt5tupleIJDpT0_EEE4typeERKSB_(ptr noundef nonnull align 8 dereferenceable(8) %0) #1 comdat {
  %2 = alloca ptr, align 8
  store ptr %0, ptr %2, align 8
  %3 = load ptr, ptr %2, align 8
  %4 = call noundef nonnull align 8 dereferenceable(8) ptr @_ZSt12__get_helperILm0EPN4llvm17LiveIntervalUnion5QueryEJSt14default_deleteIA_S2_EEERKT0_RKSt11_Tuple_implIXT_EJS7_DpT1_EE(ptr noundef nonnull align 8 dereferenceable(8) %3) #10
  ret ptr %4
}

; Function Attrs: mustprogress nounwind uwtable
define linkonce_odr hidden noundef i32 @_ZNK4llvm17LiveIntervalUnion6getTagEv(ptr noundef nonnull align 8 dereferenceable(216) %0) #1 comdat align 2 {
  %2 = alloca ptr, align 8
  store ptr %0, ptr %2, align 8
  %3 = load ptr, ptr %2, align 8
  %4 = getelementptr inbounds nuw %"class.llvm::LiveIntervalUnion", ptr %3, i32 0, i32 0
  %5 = load i32, ptr %4, align 8
  ret i32 %5
}

; Function Attrs: mustprogress nounwind uwtable
define linkonce_odr hidden void @_ZN4llvm15SmallVectorImplIPKNS_12LiveIntervalEE5clearEv(ptr noundef nonnull align 8 dereferenceable(16) %0) #1 comdat align 2 {
  %2 = alloca ptr, align 8
  store ptr %0, ptr %2, align 8
  %3 = load ptr, ptr %2, align 8
  %4 = call noundef ptr @_ZN4llvm25SmallVectorTemplateCommonIPKNS_12LiveIntervalEvE5beginEv(ptr noundef nonnull align 8 dereferenceable(16) %3)
  %5 = call noundef ptr @_ZN4llvm25SmallVectorTemplateCommonIPKNS_12LiveIntervalEvE3endEv(ptr noundef nonnull align 8 dereferenceable(16) %3)
  call void @_ZN4llvm23SmallVectorTemplateBaseIPKNS_12LiveIntervalELb1EE13destroy_rangeEPS3_S5_(ptr noundef %4, ptr noundef %5)
  %6 = getelementptr inbounds nuw %"class.llvm::SmallVectorBase", ptr %3, i32 0, i32 1
  store i32 0, ptr %6, align 8
  ret void
}

; Function Attrs: mustprogress nounwind uwtable
define linkonce_odr hidden noundef ptr @_ZNKSt15__uniq_ptr_implIN4llvm17LiveIntervalUnion5QueryESt14default_deleteIA_S2_EE6_M_ptrEv(ptr noundef nonnull align 8 dereferenceable(8) %0) #1 comdat align 2 {
  %2 = alloca ptr, align 8
  store ptr %0, ptr %2, align 8
  %3 = load ptr, ptr %2, align 8
  %4 = getelementptr inbounds nuw %"class.std::__uniq_ptr_impl", ptr %3, i32 0, i32 0
  %5 = call noundef nonnull align 8 dereferenceable(8) ptr @_ZSt3getILm0EJPN4llvm17LiveIntervalUnion5QueryESt14default_deleteIA_S2_EEERKNSt13tuple_elementIXT_ESt5tupleIJDpT0_EEE4typeERKSB_(ptr noundef nonnull align 8 dereferenceable(8) %4) #10
  %6 = load ptr, ptr %5, align 8
  ret ptr %6
}

; Function Attrs: mustprogress nounwind uwtable
define linkonce_odr hidden void @_ZN4llvm17LiveIntervalUnion5Query5resetEjRKNS_9LiveRangeERKS0_(ptr noundef nonnull align 8 dereferenceable(172) %0, i32 noundef %1, ptr noundef nonnull align 8 dereferenceable(104) %2, ptr noundef nonnull align 8 dereferenceable(216) %3) #1 comdat align 2 {
  %5 = alloca ptr, align 8
  %6 = alloca i32, align 4
  %7 = alloca ptr, align 8
  %8 = alloca ptr, align 8
  store ptr %0, ptr %5, align 8
  store i32 %1, ptr %6, align 4
  store ptr %2, ptr %7, align 8
  store ptr %3, ptr %8, align 8
  %9 = load ptr, ptr %5, align 8
  %10 = load ptr, ptr %8, align 8
  %11 = getelementptr inbounds nuw %"class.llvm::LiveIntervalUnion::Query", ptr %9, i32 0, i32 0
  store ptr %10, ptr %11, align 8
  %12 = load ptr, ptr %7, align 8
  %13 = getelementptr inbounds nuw %"class.llvm::LiveIntervalUnion::Query", ptr %9, i32 0, i32 1
  store ptr %12, ptr %13, align 8
  %14 = getelementptr inbounds nuw %"class.llvm::LiveIntervalUnion::Query", ptr %9, i32 0, i32 4
  call void @_ZN4llvm15SmallVectorImplIPKNS_12LiveIntervalEE5clearEv(ptr noundef nonnull align 8 dereferenceable(16) %14)
  %15 = getelementptr inbounds nuw %"class.llvm::LiveIntervalUnion::Query", ptr %9, i32 0, i32 5
  store i8 0, ptr %15, align 8
  %16 = getelementptr inbounds nuw %"class.llvm::LiveIntervalUnion::Query", ptr %9, i32 0, i32 6
  store i8 0, ptr %16, align 1
  %17 = load ptr, ptr %8, align 8
  %18 = call noundef i32 @_ZNK4llvm17LiveIntervalUnion6getTagEv(ptr noundef nonnull align 8 dereferenceable(216) %17)
  %19 = getelementptr inbounds nuw %"class.llvm::LiveIntervalUnion::Query", ptr %9, i32 0, i32 8
  store i32 %18, ptr %19, align 4
  %20 = load i32, ptr %6, align 4
  %21 = getelementptr inbounds nuw %"class.llvm::LiveIntervalUnion::Query", ptr %9, i32 0, i32 9
  store i32 %20, ptr %21, align 8
  ret void
}

; Function Attrs: mustprogress nounwind uwtable
define linkonce_odr hidden noundef zeroext i1 @_ZNK4llvm17LiveIntervalUnion12changedSinceEj(ptr noundef nonnull align 8 dereferenceable(216) %0, i32 noundef %1) #1 comdat align 2 {
  %3 = alloca ptr, align 8
  %4 = alloca i32, align 4
  store ptr %0, ptr %3, align 8
  store i32 %1, ptr %4, align 4
  %5 = load ptr, ptr %3, align 8
  %6 = load i32, ptr %4, align 4
  %7 = getelementptr inbounds nuw %"class.llvm::LiveIntervalUnion", ptr %5, i32 0, i32 0
  %8 = load i32, ptr %7, align 8
  %9 = icmp ne i32 %6, %8
  ret i1 %9
}

; Function Attrs: mustprogress nounwind uwtable
define linkonce_odr hidden noundef ptr @_ZNKSt10unique_ptrIA_N4llvm17LiveIntervalUnion5QueryESt14default_deleteIS3_EE3getEv(ptr noundef nonnull align 8 dereferenceable(8) %0) #1 comdat align 2 {
  %2 = alloca ptr, align 8
  store ptr %0, ptr %2, align 8
  %3 = load ptr, ptr %2, align 8
  %4 = getelementptr inbounds nuw %"class.std::unique_ptr", ptr %3, i32 0, i32 0
  %5 = call noundef ptr @_ZNKSt15__uniq_ptr_implIN4llvm17LiveIntervalUnion5QueryESt14default_deleteIA_S2_EE6_M_ptrEv(ptr noundef nonnull align 8 dereferenceable(8) %4) #10
  ret ptr %5
}

; Function Attrs: mustprogress nounwind uwtable
define linkonce_odr hidden void @_ZN4llvm17LiveIntervalUnion5Query4initEjRKNS_9LiveRangeERKS0_(ptr noundef nonnull align 8 dereferenceable(172) %0, i32 noundef %1, ptr noundef nonnull align 8 dereferenceable(104) %2, ptr noundef nonnull align 8 dereferenceable(216) %3) #1 comdat align 2 {
  %5 = alloca ptr, align 8
  %6 = alloca i32, align 4
  %7 = alloca ptr, align 8
  %8 = alloca ptr, align 8
  store ptr %0, ptr %5, align 8
  store i32 %1, ptr %6, align 4
  store ptr %2, ptr %7, align 8
  store ptr %3, ptr %8, align 8
  %9 = load ptr, ptr %5, align 8
  %10 = getelementptr inbounds nuw %"class.llvm::LiveIntervalUnion::Query", ptr %9, i32 0, i32 9
  %11 = load i32, ptr %10, align 8
  %12 = load i32, ptr %6, align 4
  %13 = icmp eq i32 %11, %12
  br i1 %13, label %14, label %30

14:                                               ; preds = %4
  %15 = getelementptr inbounds nuw %"class.llvm::LiveIntervalUnion::Query", ptr %9, i32 0, i32 1
  %16 = load ptr, ptr %15, align 8
  %17 = load ptr, ptr %7, align 8
  %18 = icmp eq ptr %16, %17
  br i1 %18, label %19, label %30

19:                                               ; preds = %14
  %20 = getelementptr inbounds nuw %"class.llvm::LiveIntervalUnion::Query", ptr %9, i32 0, i32 0
  %21 = load ptr, ptr %20, align 8
  %22 = load ptr, ptr %8, align 8
  %23 = icmp eq ptr %21, %22
  br i1 %23, label %24, label %30

24:                                               ; preds = %19
  %25 = load ptr, ptr %8, align 8
  %26 = getelementptr inbounds nuw %"class.llvm::LiveIntervalUnion::Query", ptr %9, i32 0, i32 8
  %27 = load i32, ptr %26, align 4
  %28 = call noundef zeroext i1 @_ZNK4llvm17LiveIntervalUnion12changedSinceEj(ptr noundef nonnull align 8 dereferenceable(216) %25, i32 noundef %27)
  br i1 %28, label %30, label %29

29:                                               ; preds = %24
  br label %34

30:                                               ; preds = %24, %19, %14, %4
  %31 = load i32, ptr %6, align 4
  %32 = load ptr, ptr %7, align 8
  %33 = load ptr, ptr %8, align 8
  call void @_ZN4llvm17LiveIntervalUnion5Query5resetEjRKNS_9LiveRangeERKS0_(ptr noundef nonnull align 8 dereferenceable(172) %9, i32 noundef %31, ptr noundef nonnull align 8 dereferenceable(104) %32, ptr noundef nonnull align 8 dereferenceable(216) %33)
  br label %34

34:                                               ; preds = %30, %29
  ret void
}

; Function Attrs: mustprogress nounwind uwtable
define linkonce_odr hidden noundef nonnull align 8 dereferenceable(216) ptr @_ZN4llvm17LiveIntervalUnion5ArrayixEj(ptr noundef nonnull align 8 dereferenceable(16) %0, i32 noundef %1) #1 comdat align 2 {
  %3 = alloca ptr, align 8
  %4 = alloca i32, align 4
  store ptr %0, ptr %3, align 8
  store i32 %1, ptr %4, align 4
  %5 = load ptr, ptr %3, align 8
  %6 = getelementptr inbounds nuw %"class.llvm::LiveIntervalUnion::Array", ptr %5, i32 0, i32 1
  %7 = load ptr, ptr %6, align 8
  %8 = load i32, ptr %4, align 4
  %9 = zext i32 %8 to i64
  %10 = getelementptr inbounds %"class.llvm::LiveIntervalUnion", ptr %7, i64 %9
  ret ptr %10
}

; Function Attrs: mustprogress nounwind uwtable
define linkonce_odr hidden noundef nonnull align 8 dereferenceable(172) ptr @_ZNKSt10unique_ptrIA_N4llvm17LiveIntervalUnion5QueryESt14default_deleteIS3_EEixEm(ptr noundef nonnull align 8 dereferenceable(8) %0, i64 noundef %1) #1 comdat align 2 {
  %3 = alloca ptr, align 8
  %4 = alloca i64, align 8
  store ptr %0, ptr %3, align 8
  store i64 %1, ptr %4, align 8
  %5 = load ptr, ptr %3, align 8
  br label %6

6:                                                ; preds = %2
  br label %7

7:                                                ; preds = %6
  %8 = call noundef ptr @_ZNKSt10unique_ptrIA_N4llvm17LiveIntervalUnion5QueryESt14default_deleteIS3_EE3getEv(ptr noundef nonnull align 8 dereferenceable(8) %5) #10
  %9 = load i64, ptr %4, align 8
  %10 = getelementptr inbounds %"class.llvm::LiveIntervalUnion::Query", ptr %8, i64 %9
  ret ptr %10
}

; Function Attrs: mustprogress nounwind uwtable
define linkonce_odr hidden noundef i32 @_ZNK4llvm10MCRegistercvjEv(ptr noundef nonnull align 4 dereferenceable(4) %0) #1 comdat align 2 {
  %2 = alloca ptr, align 8
  store ptr %0, ptr %2, align 8
  %3 = load ptr, ptr %2, align 8
  %4 = getelementptr inbounds nuw %"class.llvm::MCRegister", ptr %3, i32 0, i32 0
  %5 = load i32, ptr %4, align 4
  ret i32 %5
}

; Function Attrs: mustprogress nounwind uwtable
define dso_local noundef nonnull align 8 dereferenceable(172) ptr @_ZN4llvm13LiveRegMatrix5queryERKNS_9LiveRangeENS_10MCRegisterE(ptr noundef nonnull align 8 dereferenceable(296) %0, ptr noundef nonnull align 8 dereferenceable(104) %1, i32 %2) #1 align 2 {
  %4 = alloca %"class.llvm::MCRegister", align 4
  %5 = alloca ptr, align 8
  %6 = alloca ptr, align 8
  %7 = alloca ptr, align 8
  %8 = getelementptr inbounds nuw %"class.llvm::MCRegister", ptr %4, i32 0, i32 0
  store i32 %2, ptr %8, align 4
  store ptr %0, ptr %5, align 8
  store ptr %1, ptr %6, align 8
  %9 = load ptr, ptr %5, align 8
  %10 = getelementptr inbounds nuw %"class.llvm::LiveRegMatrix", ptr %9, i32 0, i32 7
  %11 = call noundef i32 @_ZNK4llvm10MCRegistercvjEv(ptr noundef nonnull align 4 dereferenceable(4) %4)
  %12 = zext i32 %11 to i64
  %13 = call noundef nonnull align 8 dereferenceable(172) ptr @_ZNKSt10unique_ptrIA_N4llvm17LiveIntervalUnion5QueryESt14default_deleteIS3_EEixEm(ptr noundef nonnull align 8 dereferenceable(8) %10, i64 noundef %12)
  store ptr %13, ptr %7, align 8
  %14 = load ptr, ptr %7, align 8
  %15 = getelementptr inbounds nuw %"class.llvm::LiveRegMatrix", ptr %9, i32 0, i32 4
  %16 = load i32, ptr %15, align 8
  %17 = load ptr, ptr %6, align 8
  %18 = getelementptr inbounds nuw %"class.llvm::LiveRegMatrix", ptr %9, i32 0, i32 6
  %19 = call noundef i32 @_ZNK4llvm10MCRegistercvjEv(ptr noundef nonnull align 4 dereferenceable(4) %4)
  %20 = call noundef nonnull align 8 dereferenceable(216) ptr @_ZN4llvm17LiveIntervalUnion5ArrayixEj(ptr noundef nonnull align 8 dereferenceable(16) %18, i32 noundef %19)
  call void @_ZN4llvm17LiveIntervalUnion5Query4initEjRKNS_9LiveRangeERKS0_(ptr noundef nonnull align 8 dereferenceable(172) %14, i32 noundef %16, ptr noundef nonnull align 8 dereferenceable(104) %17, ptr noundef nonnull align 8 dereferenceable(216) %20)
  %21 = load ptr, ptr %7, align 8
  ret ptr %21
}