; Function Attrs: mustprogress nounwind uwtable
define dso_local noundef nonnull align 8 dereferenceable(172) ptr @_ZN4llvm13LiveRegMatrix5queryERKNS_9LiveRangeENS_10MCRegisterE(ptr nocapture noundef nonnull readonly align 8 dereferenceable(296) %0, ptr noundef nonnull align 8 dereferenceable(104) %1, i32 %2) local_unnamed_addr #0 align 2 {
  %4 = getelementptr inbounds nuw i8, ptr %0, i64 208
  %5 = zext i32 %2 to i64
  %6 = load ptr, ptr %4, align 8
  %7 = getelementptr inbounds %"class.llvm::LiveIntervalUnion::Query", ptr %6, i64 %5
  %8 = getelementptr inbounds nuw i8, ptr %0, i64 80
  %9 = load i32, ptr %8, align 8
  %10 = getelementptr inbounds i8, ptr %0, i64 200
  %11 = load ptr, ptr %10, align 8
  %12 = getelementptr inbounds %"class.llvm::LiveIntervalUnion", ptr %11, i64 %5
  %13 = getelementptr inbounds nuw i8, ptr %7, i64 168
  %14 = load i32, ptr %13, align 8
  %15 = icmp eq i32 %14, %9
  %16 = getelementptr inbounds nuw i8, ptr %7, i64 8
  %17 = load ptr, ptr %16, align 8
  %18 = icmp eq ptr %17, %1
  %or.cond.i = select i1 %15, i1 %18, i1 false
  %19 = load ptr, ptr %7, align 8
  %20 = icmp eq ptr %19, %12
  %or.cond10.i = select i1 %or.cond.i, i1 %20, i1 false
  br i1 %or.cond10.i, label %21, label %25

21:                                               ; preds = %3
  %22 = getelementptr inbounds nuw i8, ptr %7, i64 164
  %23 = load i32, ptr %22, align 4
  %24 = load i32, ptr %12, align 8
  %.not.i = icmp eq i32 %23, %24
  br i1 %.not.i, label %_ZN4llvm17LiveIntervalUnion5Query4initEjRKNS_9LiveRangeERKS0_.exit, label %25

25:                                               ; preds = %21, %3
  store ptr %12, ptr %7, align 8
  store ptr %1, ptr %16, align 8
  %26 = getelementptr inbounds nuw i8, ptr %7, i64 112
  %27 = tail call noundef i64 @_ZNK4llvm15SmallVectorBaseIjE4sizeEv(ptr noundef nonnull align 8 dereferenceable(16) %26) #14
  %28 = getelementptr inbounds i8, ptr %7, i64 120
  store i32 0, ptr %28, align 8
  %29 = getelementptr inbounds nuw i8, ptr %7, i64 160
  store i8 0, ptr %29, align 8
  %30 = getelementptr inbounds nuw i8, ptr %7, i64 161
  store i8 0, ptr %30, align 1
  %31 = load i32, ptr %12, align 8
  %32 = getelementptr inbounds nuw i8, ptr %7, i64 164
  store i32 %31, ptr %32, align 4
  store i32 %9, ptr %13, align 8
  br label %_ZN4llvm17LiveIntervalUnion5Query4initEjRKNS_9LiveRangeERKS0_.exit

_ZN4llvm17LiveIntervalUnion5Query4initEjRKNS_9LiveRangeERKS0_.exit: ; preds = %21, %25
  ret ptr %7
}